target datalayout = "e-m:e-p270:32:32-p271:32:32-p272:64:64-i64:64-i128:128-f80:128-n8:16:32:64-S128"
target triple = "x86_64-pc-linux-gnu"

%struct.SASL = type { ptr, i32, ptr, i16, i16, i16, i8 }
%struct.SASLproto = type { ptr, ptr, ptr, ptr, ptr, i64, i32, i32, i16, i16 }

@.str.15 = private unnamed_addr constant [1 x i8] zeroinitializer, align 1
@.str.16 = private unnamed_addr constant [2 x i8] c"=\00", align 1

; Function Attrs: nounwind uwtable
define internal i32 @build_message(ptr noundef %0, ptr noundef %1) #0 {
  %3 = alloca ptr, align 8
  %4 = alloca ptr, align 8
  %5 = alloca i32, align 4
  %6 = alloca ptr, align 8
  %7 = alloca i64, align 8
  store ptr %0, ptr %3, align 8, !tbaa !25
  store ptr %1, ptr %4, align 8, !tbaa !125
  call void @llvm.lifetime.start.p0(i64 4, ptr %5) #4
  store i32 0, ptr %5, align 4, !tbaa !16
  %8 = load ptr, ptr %3, align 8, !tbaa !25
  %9 = getelementptr inbounds nuw %struct.SASL, ptr %8, i32 0, i32 0
  %10 = load ptr, ptr %9, align 8, !tbaa !97
  %11 = getelementptr inbounds nuw %struct.SASLproto, ptr %10, i32 0, i32 9
  %12 = load i16, ptr %11, align 2, !tbaa !127
  %13 = zext i16 %12 to i32
  %14 = and i32 %13, 1
  %15 = icmp ne i32 %14, 0
  br i1 %15, label %16, label %43

16:                                               ; preds = %2
  %17 = load ptr, ptr %4, align 8, !tbaa !125
  %18 = call ptr @Curl_bufref_ptr(ptr noundef %17)
  %19 = icmp ne ptr %18, null
  br i1 %19, label %22, label %20

20:                                               ; preds = %16
  %21 = load ptr, ptr %4, align 8, !tbaa !125
  call void @Curl_bufref_set(ptr noundef %21, ptr noundef @.str.15, i64 noundef 0, ptr noundef null)
  br label %42

22:                                               ; preds = %16
  %23 = load ptr, ptr %4, align 8, !tbaa !125
  %24 = call i64 @Curl_bufref_len(ptr noundef %23)
  %25 = icmp ne i64 %24, 0
  br i1 %25, label %28, label %26

26:                                               ; preds = %22
  %27 = load ptr, ptr %4, align 8, !tbaa !125
  call void @Curl_bufref_set(ptr noundef %27, ptr noundef @.str.16, i64 noundef 1, ptr noundef null)
  br label %41

28:                                               ; preds = %22
  call void @llvm.lifetime.start.p0(i64 8, ptr %6) #4
  call void @llvm.lifetime.start.p0(i64 8, ptr %7) #4
  %29 = load ptr, ptr %4, align 8, !tbaa !125
  %30 = call ptr @Curl_bufref_ptr(ptr noundef %29)
  %31 = load ptr, ptr %4, align 8, !tbaa !125
  %32 = call i64 @Curl_bufref_len(ptr noundef %31)
  %33 = call i32 @Curl_base64_encode(ptr noundef %30, i64 noundef %32, ptr noundef %6, ptr noundef %7)
  store i32 %33, ptr %5, align 4, !tbaa !16
  %34 = load i32, ptr %5, align 4, !tbaa !16
  %35 = icmp ne i32 %34, 0
  br i1 %35, label %40, label %36

36:                                               ; preds = %28
  %37 = load ptr, ptr %4, align 8, !tbaa !125
  %38 = load ptr, ptr %6, align 8, !tbaa !10
  %39 = load i64, ptr %7, align 8, !tbaa !12
  call void @Curl_bufref_set(ptr noundef %37, ptr noundef %38, i64 noundef %39, ptr noundef @curl_free)
  br label %40

40:                                               ; preds = %36, %28
  call void @llvm.lifetime.end.p0(i64 8, ptr %7) #4
  call void @llvm.lifetime.end.p0(i64 8, ptr %6) #4
  br label %41

41:                                               ; preds = %40, %26
  br label %42

42:                                               ; preds = %41, %20
  br label %43

43:                                               ; preds = %42, %2
  %44 = load i32, ptr %5, align 4, !tbaa !16
  call void @llvm.lifetime.end.p0(i64 4, ptr %5) #4
  ret i32 %44
}