; Function Attrs: nounwind uwtable
define internal fastcc i32 @build_message(i16 %.0.val.58.val, ptr noundef nonnull %0) unnamed_addr #0 {
  %2 = alloca ptr, align 8
  %3 = alloca i64, align 8
  %4 = and i16 %.0.val.58.val, 1
  %.not = icmp eq i16 %4, 0
  br i1 %.not, label %19, label %5

5:                                                ; preds = %1
  %6 = tail call ptr @Curl_bufref_ptr(ptr noundef nonnull %0) #8
  %.not9 = icmp eq ptr %6, null
  br i1 %.not9, label %7, label %8

7:                                                ; preds = %5
  tail call void @Curl_bufref_set(ptr noundef nonnull %0, ptr noundef nonnull @.str.15, i64 noundef 0, ptr noundef null) #8
  br label %19

8:                                                ; preds = %5
  %9 = tail call i64 @Curl_bufref_len(ptr noundef nonnull %0) #8
  %.not10 = icmp eq i64 %9, 0
  br i1 %.not10, label %10, label %11

10:                                               ; preds = %8
  tail call void @Curl_bufref_set(ptr noundef nonnull %0, ptr noundef nonnull @.str.16, i64 noundef 1, ptr noundef null) #8
  br label %19

11:                                               ; preds = %8
  call void @llvm.lifetime.start.p0(i64 8, ptr nonnull %2) #8
  call void @llvm.lifetime.start.p0(i64 8, ptr nonnull %3) #8
  %12 = tail call ptr @Curl_bufref_ptr(ptr noundef nonnull %0) #8
  %13 = tail call i64 @Curl_bufref_len(ptr noundef nonnull %0) #8
  %14 = call i32 @Curl_base64_encode(ptr noundef %12, i64 noundef %13, ptr noundef nonnull %2, ptr noundef nonnull %3) #8
  %.not11 = icmp eq i32 %14, 0
  br i1 %.not11, label %15, label %18

15:                                               ; preds = %11
  %16 = load ptr, ptr %2, align 8, !tbaa !95
  %17 = load i64, ptr %3, align 8, !tbaa !15
  call void @Curl_bufref_set(ptr noundef nonnull %0, ptr noundef %16, i64 noundef %17, ptr noundef nonnull @curl_free) #8
  br label %18

18:                                               ; preds = %15, %11
  call void @llvm.lifetime.end.p0(i64 8, ptr nonnull %3) #8
  call void @llvm.lifetime.end.p0(i64 8, ptr nonnull %2) #8
  br label %19

19:                                               ; preds = %7, %18, %10, %1
  %.0 = phi i32 [ %14, %18 ], [ 0, %10 ], [ 0, %7 ], [ 0, %1 ]
  ret i32 %.0
}